target datalayout = "e-m:e-p270:32:32-p271:32:32-p272:64:64-i64:64-i128:128-f80:128-n8:16:32:64-S128"
target triple = "x86_64-pc-linux-gnu"

%struct.Wlc_Ntk_t_ = type { ptr, ptr, %struct.Vec_Int_t_, %struct.Vec_Int_t_, %struct.Vec_Int_t_, %struct.Vec_Int_t_, %struct.Vec_Int_t_, %struct.Vec_Int_t_, ptr, ptr, ptr, [60 x i32], [60 x i32], i32, i32, i32, i32, i32, ptr, i32, i32, ptr, ptr, ptr, ptr, ptr, %struct.Vec_Int_t_, %struct.Vec_Int_t_, i32, %struct.Vec_Int_t_, %struct.Vec_Int_t_, %struct.Vec_Int_t_, %struct.Vec_Int_t_, %struct.Vec_Int_t_, %struct.Vec_Int_t_ }
%struct.Vec_Int_t_ = type { i32, i32, ptr }
%struct.Wlc_Obj_t_ = type { i16, i32, i32, i32, %union.anon }
%union.anon = type { [1 x ptr] }

; Function Attrs: nounwind uwtable
define internal ptr @Wlc_NtkObj(ptr noundef %0, i32 noundef %1) #0 {
  %3 = alloca ptr, align 8
  %4 = alloca i32, align 4
  store ptr %0, ptr %3, align 8
  store i32 %1, ptr %4, align 4
  %5 = load ptr, ptr %3, align 8
  %6 = getelementptr inbounds %struct.Wlc_Ntk_t_, ptr %5, i32 0, i32 18
  %7 = load ptr, ptr %6, align 8
  %8 = load i32, ptr %4, align 4
  %9 = sext i32 %8 to i64
  %10 = getelementptr inbounds %struct.Wlc_Obj_t_, ptr %7, i64 %9
  ret ptr %10
}

; Function Attrs: nounwind uwtable
define internal i32 @Vec_IntEntry(ptr noundef %0, i32 noundef %1) #0 {
  %3 = alloca ptr, align 8
  %4 = alloca i32, align 4
  store ptr %0, ptr %3, align 8
  store i32 %1, ptr %4, align 4
  %5 = load ptr, ptr %3, align 8
  %6 = getelementptr inbounds %struct.Vec_Int_t_, ptr %5, i32 0, i32 2
  %7 = load ptr, ptr %6, align 8
  %8 = load i32, ptr %4, align 4
  %9 = sext i32 %8 to i64
  %10 = getelementptr inbounds i32, ptr %7, i64 %9
  %11 = load i32, ptr %10, align 4
  ret i32 %11
}

; Function Attrs: nounwind uwtable
define internal i32 @Vec_IntSize(ptr noundef %0) #0 {
  %2 = alloca ptr, align 8
  store ptr %0, ptr %2, align 8
  %3 = load ptr, ptr %2, align 8
  %4 = getelementptr inbounds %struct.Vec_Int_t_, ptr %3, i32 0, i32 1
  %5 = load i32, ptr %4, align 4
  ret i32 %5
}

; Function Attrs: nounwind uwtable
define internal i32 @Wlc_ObjRange(ptr noundef %0) #0 {
  %2 = alloca ptr, align 8
  store ptr %0, ptr %2, align 8
  %3 = load ptr, ptr %2, align 8
  %4 = getelementptr inbounds %struct.Wlc_Obj_t_, ptr %3, i32 0, i32 2
  %5 = load i32, ptr %4, align 8
  %6 = load ptr, ptr %2, align 8
  %7 = getelementptr inbounds %struct.Wlc_Obj_t_, ptr %6, i32 0, i32 3
  %8 = load i32, ptr %7, align 4
  %9 = icmp sge i32 %5, %8
  br i1 %9, label %10, label %18

10:                                               ; preds = %1
  %11 = load ptr, ptr %2, align 8
  %12 = getelementptr inbounds %struct.Wlc_Obj_t_, ptr %11, i32 0, i32 2
  %13 = load i32, ptr %12, align 8
  %14 = load ptr, ptr %2, align 8
  %15 = getelementptr inbounds %struct.Wlc_Obj_t_, ptr %14, i32 0, i32 3
  %16 = load i32, ptr %15, align 4
  %17 = sub nsw i32 %13, %16
  br label %26

18:                                               ; preds = %1
  %19 = load ptr, ptr %2, align 8
  %20 = getelementptr inbounds %struct.Wlc_Obj_t_, ptr %19, i32 0, i32 3
  %21 = load i32, ptr %20, align 4
  %22 = load ptr, ptr %2, align 8
  %23 = getelementptr inbounds %struct.Wlc_Obj_t_, ptr %22, i32 0, i32 2
  %24 = load i32, ptr %23, align 8
  %25 = sub nsw i32 %21, %24
  br label %26

26:                                               ; preds = %18, %10
  %27 = phi i32 [ %17, %10 ], [ %25, %18 ]
  %28 = add nsw i32 1, %27
  ret i32 %28
}

; Function Attrs: nounwind uwtable
define internal i32 @Wlc_ObjIsPi(ptr noundef %0) #0 {
  %2 = alloca ptr, align 8
  store ptr %0, ptr %2, align 8
  %3 = load ptr, ptr %2, align 8
  %4 = load i16, ptr %3, align 8
  %5 = and i16 %4, 63
  %6 = zext i16 %5 to i32
  %7 = icmp eq i32 %6, 1
  %8 = zext i1 %7 to i32
  ret i32 %8
}

; Function Attrs: nounwind uwtable
define internal ptr @Wlc_NtkCi(ptr noundef %0, i32 noundef %1) #0 {
  %3 = alloca ptr, align 8
  %4 = alloca i32, align 4
  store ptr %0, ptr %3, align 8
  store i32 %1, ptr %4, align 4
  %5 = load ptr, ptr %3, align 8
  %6 = load ptr, ptr %3, align 8
  %7 = getelementptr inbounds %struct.Wlc_Ntk_t_, ptr %6, i32 0, i32 4
  %8 = load i32, ptr %4, align 4
  %9 = call i32 @Vec_IntEntry(ptr noundef %7, i32 noundef %8)
  %10 = call ptr @Wlc_NtkObj(ptr noundef %5, i32 noundef %9)
  ret ptr %10
}

; Function Attrs: nounwind uwtable
define internal i32 @Wlc_NtkCiNum(ptr noundef %0) #0 {
  %2 = alloca ptr, align 8
  store ptr %0, ptr %2, align 8
  %3 = load ptr, ptr %2, align 8
  %4 = getelementptr inbounds %struct.Wlc_Ntk_t_, ptr %3, i32 0, i32 4
  %5 = call i32 @Vec_IntSize(ptr noundef %4)
  ret i32 %5
}

; Function Attrs: nounwind uwtable
define internal ptr @Abc_UtilStrsav(ptr noundef %0) #0 {
  %2 = alloca ptr, align 8
  store ptr %0, ptr %2, align 8
  %3 = load ptr, ptr %2, align 8
  %4 = icmp ne ptr %3, null
  br i1 %4, label %5, label %13

5:                                                ; preds = %1
  %6 = load ptr, ptr %2, align 8
  %7 = call i64 @strlen(ptr noundef %6) #13
  %8 = add i64 %7, 1
  %9 = mul i64 1, %8
  %10 = call noalias ptr @malloc(i64 noundef %9) #11
  %11 = load ptr, ptr %2, align 8
  %12 = call ptr @strcpy(ptr noundef %10, ptr noundef %11) #12
  br label %14

13:                                               ; preds = %1
  br label %14

14:                                               ; preds = %13, %5
  %15 = phi ptr [ %12, %5 ], [ null, %13 ]
  ret ptr %15
}

; Function Attrs: nounwind uwtable
define ptr @Wlc_ReduceMarkedInitStr(ptr noundef %0, ptr noundef %1) #0 {
  %3 = alloca ptr, align 8
  %4 = alloca ptr, align 8
  %5 = alloca ptr, align 8
  %6 = alloca ptr, align 8
  %7 = alloca i32, align 4
  %8 = alloca i32, align 4
  %9 = alloca i32, align 4
  %10 = alloca i32, align 4
  store ptr %0, ptr %3, align 8
  store ptr %1, ptr %4, align 8
  %11 = load ptr, ptr %4, align 8
  %12 = call ptr @Abc_UtilStrsav(ptr noundef %11)
  store ptr %12, ptr %5, align 8
  store i32 0, ptr %9, align 4
  store i32 0, ptr %10, align 4
  store i32 0, ptr %7, align 4
  br label %13

13:                                               ; preds = %68, %2
  %14 = load i32, ptr %7, align 4
  %15 = load ptr, ptr %3, align 8
  %16 = call i32 @Wlc_NtkCiNum(ptr noundef %15)
  %17 = icmp slt i32 %14, %16
  br i1 %17, label %18, label %22

18:                                               ; preds = %13
  %19 = load ptr, ptr %3, align 8
  %20 = load i32, ptr %7, align 4
  %21 = call ptr @Wlc_NtkCi(ptr noundef %19, i32 noundef %20)
  store ptr %21, ptr %6, align 8
  br label %22

22:                                               ; preds = %18, %13
  %23 = phi i1 [ false, %13 ], [ true, %18 ]
  br i1 %23, label %24, label %71

24:                                               ; preds = %22
  %25 = load ptr, ptr %6, align 8
  %26 = call i32 @Wlc_ObjIsPi(ptr noundef %25)
  %27 = icmp ne i32 %26, 0
  br i1 %27, label %58, label %28

28:                                               ; preds = %24
  %29 = load ptr, ptr %6, align 8
  %30 = load i16, ptr %29, align 8
  %31 = lshr i16 %30, 7
  %32 = and i16 %31, 1
  %33 = zext i16 %32 to i32
  %34 = icmp ne i32 %33, 0
  br i1 %34, label %35, label %58

35:                                               ; preds = %28
  store i32 0, ptr %8, align 4
  br label %36

36:                                               ; preds = %54, %35
  %37 = load i32, ptr %8, align 4
  %38 = load ptr, ptr %6, align 8
  %39 = call i32 @Wlc_ObjRange(ptr noundef %38)
  %40 = icmp slt i32 %37, %39
  br i1 %40, label %41, label %57

41:                                               ; preds = %36
  %42 = load ptr, ptr %5, align 8
  %43 = load i32, ptr %9, align 4
  %44 = load i32, ptr %8, align 4
  %45 = add nsw i32 %43, %44
  %46 = sext i32 %45 to i64
  %47 = getelementptr inbounds i8, ptr %42, i64 %46
  %48 = load i8, ptr %47, align 1
  %49 = load ptr, ptr %5, align 8
  %50 = load i32, ptr %10, align 4
  %51 = add nsw i32 %50, 1
  store i32 %51, ptr %10, align 4
  %52 = sext i32 %50 to i64
  %53 = getelementptr inbounds i8, ptr %49, i64 %52
  store i8 %48, ptr %53, align 1
  br label %54

54:                                               ; preds = %41
  %55 = load i32, ptr %8, align 4
  %56 = add nsw i32 %55, 1
  store i32 %56, ptr %8, align 4
  br label %36, !llvm.loop !50

57:                                               ; preds = %36
  br label %58

58:                                               ; preds = %57, %28, %24
  %59 = load ptr, ptr %6, align 8
  %60 = call i32 @Wlc_ObjIsPi(ptr noundef %59)
  %61 = icmp ne i32 %60, 0
  br i1 %61, label %67, label %62

62:                                               ; preds = %58
  %63 = load ptr, ptr %6, align 8
  %64 = call i32 @Wlc_ObjRange(ptr noundef %63)
  %65 = load i32, ptr %9, align 4
  %66 = add nsw i32 %65, %64
  store i32 %66, ptr %9, align 4
  br label %67

67:                                               ; preds = %62, %58
  br label %68

68:                                               ; preds = %67
  %69 = load i32, ptr %7, align 4
  %70 = add nsw i32 %69, 1
  store i32 %70, ptr %7, align 4
  br label %13, !llvm.loop !51

71:                                               ; preds = %22
  %72 = load ptr, ptr %5, align 8
  %73 = load i32, ptr %10, align 4
  %74 = sext i32 %73 to i64
  %75 = getelementptr inbounds i8, ptr %72, i64 %74
  store i8 0, ptr %75, align 1
  %76 = load ptr, ptr %5, align 8
  ret ptr %76
}