; Function Attrs: nofree nounwind uwtable
define noundef ptr @Wlc_ReduceMarkedInitStr(ptr noundef readonly captures(none) %0, ptr noundef readonly %1) local_unnamed_addr #16 {
  %.not.i = icmp eq ptr %1, null
  br i1 %.not.i, label %Abc_UtilStrsav.exit, label %3

3:                                                ; preds = %2
  %4 = tail call i64 @strlen(ptr noundef nonnull readonly dereferenceable(1) %1) #28
  %5 = add i64 %4, 1
  %6 = tail call noalias ptr @malloc(i64 noundef %5) #26
  %7 = tail call ptr @strcpy(ptr noundef nonnull dereferenceable(1) %6, ptr noundef nonnull readonly dereferenceable(1) %1) #25
  br label %Abc_UtilStrsav.exit

Abc_UtilStrsav.exit:                              ; preds = %2, %3
  %8 = phi ptr [ %6, %3 ], [ null, %2 ]
  %9 = getelementptr i8, ptr %0, i64 52
  %.val = load i32, ptr %9, align 4
  %10 = icmp sgt i32 %.val, 0
  br i1 %10, label %.lr.ph, label %.critedge

.lr.ph:                                           ; preds = %Abc_UtilStrsav.exit
  %11 = getelementptr i8, ptr %0, i64 56
  %.val27 = load ptr, ptr %11, align 8
  %12 = getelementptr i8, ptr %0, i64 640
  %.val28 = load ptr, ptr %12, align 8
  %wide.trip.count = zext nneg i32 %.val to i64
  br label %13

13:                                               ; preds = %.lr.ph, %39
  %indvars.iv48 = phi i64 [ 0, %.lr.ph ], [ %indvars.iv.next49, %39 ]
  %.042 = phi i32 [ 0, %.lr.ph ], [ %.1, %39 ]
  %.02141 = phi i32 [ 0, %.lr.ph ], [ %.122, %39 ]
  %14 = getelementptr inbounds nuw i32, ptr %.val27, i64 %indvars.iv48
  %15 = load i32, ptr %14, align 4
  %16 = sext i32 %15 to i64
  %17 = getelementptr inbounds %struct.Wlc_Obj_t_, ptr %.val28, i64 %16
  %.val30 = load i16, ptr %17, align 8
  %18 = and i16 %.val30, 63
  %19 = icmp eq i16 %18, 1
  %20 = and i16 %.val30, 128
  %.not25 = icmp eq i16 %20, 0
  %or.cond = or i1 %19, %.not25
  br i1 %or.cond, label %.loopexit, label %.preheader

.preheader:                                       ; preds = %13
  %21 = getelementptr i8, ptr %17, i64 8
  %22 = getelementptr i8, ptr %17, i64 12
  %23 = sext i32 %.042 to i64
  %24 = sext i32 %.02141 to i64
  %invariant.gep = getelementptr i8, ptr %8, i64 %24
  br label %25

25:                                               ; preds = %.preheader, %25
  %indvars.iv43 = phi i64 [ 0, %.preheader ], [ %indvars.iv.next44, %25 ]
  %indvars.iv = phi i64 [ %23, %.preheader ], [ %indvars.iv.next, %25 ]
  %gep = getelementptr i8, ptr %invariant.gep, i64 %indvars.iv43
  %26 = load i8, ptr %gep, align 1
  %indvars.iv.next = add nsw i64 %indvars.iv, 1
  %27 = getelementptr inbounds i8, ptr %8, i64 %indvars.iv
  store i8 %26, ptr %27, align 1
  %indvars.iv.next44 = add nuw nsw i64 %indvars.iv43, 1
  %.val33 = load i32, ptr %21, align 8
  %.val34 = load i32, ptr %22, align 4
  %28 = sub nsw i32 %.val33, %.val34
  %29 = tail call i32 @llvm.abs.i32(i32 %28, i1 true)
  %30 = zext nneg i32 %29 to i64
  %.not.not = icmp samesign ult i64 %indvars.iv43, %30
  br i1 %.not.not, label %25, label %.loopexit.loopexit, !llvm.loop !49

.loopexit.loopexit:                               ; preds = %25
  %31 = trunc nsw i64 %indvars.iv.next to i32
  %.val29.pre = load i16, ptr %17, align 8
  %.pre = and i16 %.val29.pre, 63
  br label %.loopexit

.loopexit:                                        ; preds = %.loopexit.loopexit, %13
  %.pre-phi = phi i16 [ %.pre, %.loopexit.loopexit ], [ %18, %13 ]
  %.1 = phi i32 [ %31, %.loopexit.loopexit ], [ %.042, %13 ]
  %.not35 = icmp eq i16 %.pre-phi, 1
  br i1 %.not35, label %39, label %32

32:                                               ; preds = %.loopexit
  %33 = getelementptr i8, ptr %17, i64 8
  %.val31 = load i32, ptr %33, align 8
  %34 = getelementptr i8, ptr %17, i64 12
  %.val32 = load i32, ptr %34, align 4
  %35 = sub nsw i32 %.val31, %.val32
  %36 = tail call i32 @llvm.abs.i32(i32 %35, i1 true)
  %37 = add i32 %.02141, 1
  %38 = add i32 %37, %36
  br label %39

39:                                               ; preds = %.loopexit, %32
  %.122 = phi i32 [ %.02141, %.loopexit ], [ %38, %32 ]
  %indvars.iv.next49 = add nuw nsw i64 %indvars.iv48, 1
  %exitcond.not = icmp eq i64 %indvars.iv.next49, %wide.trip.count
  br i1 %exitcond.not, label %.critedge.loopexit, label %13, !llvm.loop !50

.critedge.loopexit:                               ; preds = %39
  %40 = sext i32 %.1 to i64
  br label %.critedge

.critedge:                                        ; preds = %.critedge.loopexit, %Abc_UtilStrsav.exit
  %.0.lcssa = phi i64 [ 0, %Abc_UtilStrsav.exit ], [ %40, %.critedge.loopexit ]
  %41 = getelementptr inbounds i8, ptr %8, i64 %.0.lcssa
  store i8 0, ptr %41, align 1
  ret ptr %8
}